target datalayout = "e-m:e-p270:32:32-p271:32:32-p272:64:64-i64:64-i128:128-f80:128-n8:16:32:64-S128"
target triple = "x86_64-unknown-linux-gnu"

%class.btVector3 = type { [4 x float] }
%class.btCylinderShape = type <{ %class.btConvexInternalShape, i32, [4 x i8] }>
%class.btConvexInternalShape = type { %class.btConvexShape, %class.btVector3, %class.btVector3, float, float }
%class.btConvexShape = type { %class.btCollisionShape }
%class.btCollisionShape = type { ptr, i32, ptr, i32, i32 }

; Function Attrs: mustprogress nounwind uwtable
define linkonce_odr dso_local noundef nonnull align 4 dereferenceable(16) ptr @_ZN9btVector3pLERKS_(ptr noundef nonnull align 4 dereferenceable(16) %this, ptr noundef nonnull align 4 dereferenceable(16) %v) #1 comdat align 2 {
entry:
  %this.addr = alloca ptr, align 8
  %v.addr = alloca ptr, align 8
  store ptr %this, ptr %this.addr, align 8
  store ptr %v, ptr %v.addr, align 8
  %this1 = load ptr, ptr %this.addr, align 8
  %0 = load ptr, ptr %v.addr, align 8
  %m_floats = getelementptr inbounds %class.btVector3, ptr %0, i32 0, i32 0
  %arrayidx = getelementptr inbounds [4 x float], ptr %m_floats, i64 0, i64 0
  %1 = load float, ptr %arrayidx, align 4
  %m_floats2 = getelementptr inbounds %class.btVector3, ptr %this1, i32 0, i32 0
  %arrayidx3 = getelementptr inbounds [4 x float], ptr %m_floats2, i64 0, i64 0
  %2 = load float, ptr %arrayidx3, align 4
  %add = fadd float %2, %1
  store float %add, ptr %arrayidx3, align 4
  %3 = load ptr, ptr %v.addr, align 8
  %m_floats4 = getelementptr inbounds %class.btVector3, ptr %3, i32 0, i32 0
  %arrayidx5 = getelementptr inbounds [4 x float], ptr %m_floats4, i64 0, i64 1
  %4 = load float, ptr %arrayidx5, align 4
  %m_floats6 = getelementptr inbounds %class.btVector3, ptr %this1, i32 0, i32 0
  %arrayidx7 = getelementptr inbounds [4 x float], ptr %m_floats6, i64 0, i64 1
  %5 = load float, ptr %arrayidx7, align 4
  %add8 = fadd float %5, %4
  store float %add8, ptr %arrayidx7, align 4
  %6 = load ptr, ptr %v.addr, align 8
  %m_floats9 = getelementptr inbounds %class.btVector3, ptr %6, i32 0, i32 0
  %arrayidx10 = getelementptr inbounds [4 x float], ptr %m_floats9, i64 0, i64 2
  %7 = load float, ptr %arrayidx10, align 4
  %m_floats11 = getelementptr inbounds %class.btVector3, ptr %this1, i32 0, i32 0
  %arrayidx12 = getelementptr inbounds [4 x float], ptr %m_floats11, i64 0, i64 2
  %8 = load float, ptr %arrayidx12, align 4
  %add13 = fadd float %8, %7
  store float %add13, ptr %arrayidx12, align 4
  ret ptr %this1
}

; Function Attrs: mustprogress nounwind uwtable
define linkonce_odr dso_local void @_ZN9btVector3C2ERKfS1_S1_(ptr noundef nonnull align 4 dereferenceable(16) %this, ptr noundef nonnull align 4 dereferenceable(4) %_x, ptr noundef nonnull align 4 dereferenceable(4) %_y, ptr noundef nonnull align 4 dereferenceable(4) %_z) unnamed_addr #1 comdat align 2 {
entry:
  %this.addr = alloca ptr, align 8
  %_x.addr = alloca ptr, align 8
  %_y.addr = alloca ptr, align 8
  %_z.addr = alloca ptr, align 8
  store ptr %this, ptr %this.addr, align 8
  store ptr %_x, ptr %_x.addr, align 8
  store ptr %_y, ptr %_y.addr, align 8
  store ptr %_z, ptr %_z.addr, align 8
  %this1 = load ptr, ptr %this.addr, align 8
  %0 = load ptr, ptr %_x.addr, align 8
  %1 = load float, ptr %0, align 4
  %m_floats = getelementptr inbounds %class.btVector3, ptr %this1, i32 0, i32 0
  %arrayidx = getelementptr inbounds [4 x float], ptr %m_floats, i64 0, i64 0
  store float %1, ptr %arrayidx, align 4
  %2 = load ptr, ptr %_y.addr, align 8
  %3 = load float, ptr %2, align 4
  %m_floats2 = getelementptr inbounds %class.btVector3, ptr %this1, i32 0, i32 0
  %arrayidx3 = getelementptr inbounds [4 x float], ptr %m_floats2, i64 0, i64 1
  store float %3, ptr %arrayidx3, align 4
  %4 = load ptr, ptr %_z.addr, align 8
  %5 = load float, ptr %4, align 4
  %m_floats4 = getelementptr inbounds %class.btVector3, ptr %this1, i32 0, i32 0
  %arrayidx5 = getelementptr inbounds [4 x float], ptr %m_floats4, i64 0, i64 2
  store float %5, ptr %arrayidx5, align 4
  %m_floats6 = getelementptr inbounds %class.btVector3, ptr %this1, i32 0, i32 0
  %arrayidx7 = getelementptr inbounds [4 x float], ptr %m_floats6, i64 0, i64 3
  store float 0.000000e+00, ptr %arrayidx7, align 4
  ret void
}

; Function Attrs: mustprogress nounwind uwtable
define linkonce_odr dso_local noundef nonnull align 4 dereferenceable(16) ptr @_ZNK15btCylinderShape27getHalfExtentsWithoutMarginEv(ptr noundef nonnull align 8 dereferenceable(76) %this) #1 comdat align 2 {
entry:
  %this.addr = alloca ptr, align 8
  store ptr %this, ptr %this.addr, align 8
  %this1 = load ptr, ptr %this.addr, align 8
  %m_implicitShapeDimensions = getelementptr inbounds %class.btConvexInternalShape, ptr %this1, i32 0, i32 2
  ret ptr %m_implicitShapeDimensions
}

; Function Attrs: mustprogress nounwind uwtable
define linkonce_odr dso_local void @_ZN9btVector38setValueERKfS1_S1_(ptr noundef nonnull align 4 dereferenceable(16) %this, ptr noundef nonnull align 4 dereferenceable(4) %_x, ptr noundef nonnull align 4 dereferenceable(4) %_y, ptr noundef nonnull align 4 dereferenceable(4) %_z) #1 comdat align 2 {
entry:
  %this.addr = alloca ptr, align 8
  %_x.addr = alloca ptr, align 8
  %_y.addr = alloca ptr, align 8
  %_z.addr = alloca ptr, align 8
  store ptr %this, ptr %this.addr, align 8
  store ptr %_x, ptr %_x.addr, align 8
  store ptr %_y, ptr %_y.addr, align 8
  store ptr %_z, ptr %_z.addr, align 8
  %this1 = load ptr, ptr %this.addr, align 8
  %0 = load ptr, ptr %_x.addr, align 8
  %1 = load float, ptr %0, align 4
  %m_floats = getelementptr inbounds %class.btVector3, ptr %this1, i32 0, i32 0
  %arrayidx = getelementptr inbounds [4 x float], ptr %m_floats, i64 0, i64 0
  store float %1, ptr %arrayidx, align 4
  %2 = load ptr, ptr %_y.addr, align 8
  %3 = load float, ptr %2, align 4
  %m_floats2 = getelementptr inbounds %class.btVector3, ptr %this1, i32 0, i32 0
  %arrayidx3 = getelementptr inbounds [4 x float], ptr %m_floats2, i64 0, i64 1
  store float %3, ptr %arrayidx3, align 4
  %4 = load ptr, ptr %_z.addr, align 8
  %5 = load float, ptr %4, align 4
  %m_floats4 = getelementptr inbounds %class.btVector3, ptr %this1, i32 0, i32 0
  %arrayidx5 = getelementptr inbounds [4 x float], ptr %m_floats4, i64 0, i64 2
  store float %5, ptr %arrayidx5, align 4
  %m_floats6 = getelementptr inbounds %class.btVector3, ptr %this1, i32 0, i32 0
  %arrayidx7 = getelementptr inbounds [4 x float], ptr %m_floats6, i64 0, i64 3
  store float 0.000000e+00, ptr %arrayidx7, align 4
  ret void
}

; Function Attrs: mustprogress nounwind uwtable
define linkonce_odr dso_local noundef ptr @_ZN9btVector3cvPfEv(ptr noundef nonnull align 4 dereferenceable(16) %this) #1 comdat align 2 {
entry:
  %this.addr = alloca ptr, align 8
  store ptr %this, ptr %this.addr, align 8
  %this1 = load ptr, ptr %this.addr, align 8
  %m_floats = getelementptr inbounds %class.btVector3, ptr %this1, i32 0, i32 0
  %arrayidx = getelementptr inbounds [4 x float], ptr %m_floats, i64 0, i64 0
  ret ptr %arrayidx
}

; Function Attrs: mustprogress uwtable
define linkonce_odr dso_local { <2 x float>, <2 x float> } @_ZNK15btCylinderShape24getHalfExtentsWithMarginEv(ptr noundef nonnull align 8 dereferenceable(76) %this) #4 comdat align 2 {
entry:
  %retval = alloca %class.btVector3, align 4
  %this.addr = alloca ptr, align 8
  %margin = alloca %class.btVector3, align 4
  %ref.tmp = alloca float, align 4
  %ref.tmp3 = alloca float, align 4
  %ref.tmp7 = alloca float, align 4
  store ptr %this, ptr %this.addr, align 8
  %this1 = load ptr, ptr %this.addr, align 8
  %call = call noundef nonnull align 4 dereferenceable(16) ptr @_ZNK15btCylinderShape27getHalfExtentsWithoutMarginEv(ptr noundef nonnull align 8 dereferenceable(76) %this1)
  call void @llvm.memcpy.p0.p0.i64(ptr align 4 %retval, ptr align 4 %call, i64 16, i1 false)
  %vtable = load ptr, ptr %this1, align 8
  %vfn = getelementptr inbounds ptr, ptr %vtable, i64 12
  %0 = load ptr, ptr %vfn, align 8
  %call2 = call noundef float %0(ptr noundef nonnull align 8 dereferenceable(72) %this1)
  store float %call2, ptr %ref.tmp, align 4
  %vtable4 = load ptr, ptr %this1, align 8
  %vfn5 = getelementptr inbounds ptr, ptr %vtable4, i64 12
  %1 = load ptr, ptr %vfn5, align 8
  %call6 = call noundef float %1(ptr noundef nonnull align 8 dereferenceable(72) %this1)
  store float %call6, ptr %ref.tmp3, align 4
  %vtable8 = load ptr, ptr %this1, align 8
  %vfn9 = getelementptr inbounds ptr, ptr %vtable8, i64 12
  %2 = load ptr, ptr %vfn9, align 8
  %call10 = call noundef float %2(ptr noundef nonnull align 8 dereferenceable(72) %this1)
  store float %call10, ptr %ref.tmp7, align 4
  call void @_ZN9btVector3C2ERKfS1_S1_(ptr noundef nonnull align 4 dereferenceable(16) %margin, ptr noundef nonnull align 4 dereferenceable(4) %ref.tmp, ptr noundef nonnull align 4 dereferenceable(4) %ref.tmp3, ptr noundef nonnull align 4 dereferenceable(4) %ref.tmp7)
  %call11 = call noundef nonnull align 4 dereferenceable(16) ptr @_ZN9btVector3pLERKS_(ptr noundef nonnull align 4 dereferenceable(16) %retval, ptr noundef nonnull align 4 dereferenceable(16) %margin)
  %coerce.dive = getelementptr inbounds %class.btVector3, ptr %retval, i32 0, i32 0
  %3 = load { <2 x float>, <2 x float> }, ptr %coerce.dive, align 4
  ret { <2 x float>, <2 x float> } %3
}

; Function Attrs: mustprogress uwtable
define dso_local void @_ZNK15btCylinderShape21calculateLocalInertiaEfR9btVector3(ptr noundef nonnull align 8 dereferenceable(76) %this, float noundef %mass, ptr noundef nonnull align 4 dereferenceable(16) %inertia) unnamed_addr #2 align 2 {
entry:
  %this.addr = alloca ptr, align 8
  %mass.addr = alloca float, align 4
  %inertia.addr = alloca ptr, align 8
  %radius2 = alloca float, align 4
  %height2 = alloca float, align 4
  %halfExtents = alloca %class.btVector3, align 4
  %div12 = alloca float, align 4
  %div4 = alloca float, align 4
  %div23 = alloca float, align 4
  %idxRadius = alloca i32, align 4
  %idxHeight = alloca i32, align 4
  %t1 = alloca float, align 4
  %t2 = alloca float, align 4
  store ptr %this, ptr %this.addr, align 8
  store float %mass, ptr %mass.addr, align 4
  store ptr %inertia, ptr %inertia.addr, align 8
  %this1 = load ptr, ptr %this.addr, align 8
  %call = call { <2 x float>, <2 x float> } @_ZNK15btCylinderShape24getHalfExtentsWithMarginEv(ptr noundef nonnull align 8 dereferenceable(76) %this1)
  %coerce.dive = getelementptr inbounds %class.btVector3, ptr %halfExtents, i32 0, i32 0
  %0 = getelementptr inbounds { <2 x float>, <2 x float> }, ptr %coerce.dive, i32 0, i32 0
  %1 = extractvalue { <2 x float>, <2 x float> } %call, 0
  store <2 x float> %1, ptr %0, align 4
  %2 = getelementptr inbounds { <2 x float>, <2 x float> }, ptr %coerce.dive, i32 0, i32 1
  %3 = extractvalue { <2 x float>, <2 x float> } %call, 1
  store <2 x float> %3, ptr %2, align 4
  %4 = load float, ptr %mass.addr, align 4
  %div = fdiv float %4, 1.200000e+01
  store float %div, ptr %div12, align 4
  %5 = load float, ptr %mass.addr, align 4
  %div2 = fdiv float %5, 4.000000e+00
  store float %div2, ptr %div4, align 4
  %6 = load float, ptr %mass.addr, align 4
  %div5 = fdiv float %6, 2.000000e+00
  store float %div5, ptr %div23, align 4
  %m_upAxis = getelementptr inbounds %class.btCylinderShape, ptr %this1, i32 0, i32 1
  %7 = load i32, ptr %m_upAxis, align 8
  switch i32 %7, label %sw.default [
    i32 0, label %sw.bb
    i32 2, label %sw.bb6
  ]

sw.bb:                                            ; preds = %entry
  store i32 1, ptr %idxRadius, align 4
  store i32 0, ptr %idxHeight, align 4
  br label %sw.epilog

sw.bb6:                                           ; preds = %entry
  store i32 0, ptr %idxRadius, align 4
  store i32 2, ptr %idxHeight, align 4
  br label %sw.epilog

sw.default:                                       ; preds = %entry
  store i32 0, ptr %idxRadius, align 4
  store i32 1, ptr %idxHeight, align 4
  br label %sw.epilog

sw.epilog:                                        ; preds = %sw.default, %sw.bb6, %sw.bb
  %call7 = call noundef ptr @_ZN9btVector3cvPfEv(ptr noundef nonnull align 4 dereferenceable(16) %halfExtents)
  %8 = load i32, ptr %idxRadius, align 4
  %idxprom = sext i32 %8 to i64
  %arrayidx = getelementptr inbounds float, ptr %call7, i64 %idxprom
  %9 = load float, ptr %arrayidx, align 4
  %call8 = call noundef ptr @_ZN9btVector3cvPfEv(ptr noundef nonnull align 4 dereferenceable(16) %halfExtents)
  %10 = load i32, ptr %idxRadius, align 4
  %idxprom9 = sext i32 %10 to i64
  %arrayidx10 = getelementptr inbounds float, ptr %call8, i64 %idxprom9
  %11 = load float, ptr %arrayidx10, align 4
  %mul = fmul float %9, %11
  store float %mul, ptr %radius2, align 4
  %call11 = call noundef ptr @_ZN9btVector3cvPfEv(ptr noundef nonnull align 4 dereferenceable(16) %halfExtents)
  %12 = load i32, ptr %idxHeight, align 4
  %idxprom12 = sext i32 %12 to i64
  %arrayidx13 = getelementptr inbounds float, ptr %call11, i64 %idxprom12
  %13 = load float, ptr %arrayidx13, align 4
  %mul14 = fmul float 4.000000e+00, %13
  %call15 = call noundef ptr @_ZN9btVector3cvPfEv(ptr noundef nonnull align 4 dereferenceable(16) %halfExtents)
  %14 = load i32, ptr %idxHeight, align 4
  %idxprom16 = sext i32 %14 to i64
  %arrayidx17 = getelementptr inbounds float, ptr %call15, i64 %idxprom16
  %15 = load float, ptr %arrayidx17, align 4
  %mul18 = fmul float %mul14, %15
  store float %mul18, ptr %height2, align 4
  %16 = load float, ptr %div12, align 4
  %17 = load float, ptr %height2, align 4
  %18 = load float, ptr %div4, align 4
  %19 = load float, ptr %radius2, align 4
  %mul20 = fmul float %18, %19
  %20 = call float @llvm.fmuladd.f32(float %16, float %17, float %mul20)
  store float %20, ptr %t1, align 4
  %21 = load float, ptr %div23, align 4
  %22 = load float, ptr %radius2, align 4
  %mul21 = fmul float %21, %22
  store float %mul21, ptr %t2, align 4
  %m_upAxis22 = getelementptr inbounds %class.btCylinderShape, ptr %this1, i32 0, i32 1
  %23 = load i32, ptr %m_upAxis22, align 8
  switch i32 %23, label %sw.default25 [
    i32 0, label %sw.bb23
    i32 2, label %sw.bb24
  ]

sw.bb23:                                          ; preds = %sw.epilog
  %24 = load ptr, ptr %inertia.addr, align 8
  call void @_ZN9btVector38setValueERKfS1_S1_(ptr noundef nonnull align 4 dereferenceable(16) %24, ptr noundef nonnull align 4 dereferenceable(4) %t2, ptr noundef nonnull align 4 dereferenceable(4) %t1, ptr noundef nonnull align 4 dereferenceable(4) %t1)
  br label %sw.epilog26

sw.bb24:                                          ; preds = %sw.epilog
  %25 = load ptr, ptr %inertia.addr, align 8
  call void @_ZN9btVector38setValueERKfS1_S1_(ptr noundef nonnull align 4 dereferenceable(16) %25, ptr noundef nonnull align 4 dereferenceable(4) %t1, ptr noundef nonnull align 4 dereferenceable(4) %t1, ptr noundef nonnull align 4 dereferenceable(4) %t2)
  br label %sw.epilog26

sw.default25:                                     ; preds = %sw.epilog
  %26 = load ptr, ptr %inertia.addr, align 8
  call void @_ZN9btVector38setValueERKfS1_S1_(ptr noundef nonnull align 4 dereferenceable(16) %26, ptr noundef nonnull align 4 dereferenceable(4) %t1, ptr noundef nonnull align 4 dereferenceable(4) %t2, ptr noundef nonnull align 4 dereferenceable(4) %t1)
  br label %sw.epilog26

sw.epilog26:                                      ; preds = %sw.default25, %sw.bb24, %sw.bb23
  ret void
}