; Function Attrs: mustprogress uwtable
define dso_local void @_ZNK15btCylinderShape21calculateLocalInertiaEfR9btVector3(ptr noundef nonnull align 8 dereferenceable(76) %this, float noundef %mass, ptr nocapture noundef nonnull writeonly align 4 dereferenceable(16) %inertia) unnamed_addr #0 align 2 {
entry:
  %m_implicitShapeDimensions.i.i = getelementptr inbounds i8, ptr %this, i64 48
  %retval.sroa.0.0.copyload.i = load <2 x float>, ptr %m_implicitShapeDimensions.i.i, align 8
  %retval.sroa.6.0.m_implicitShapeDimensions.i.sroa_idx.i = getelementptr inbounds i8, ptr %this, i64 56
  %retval.sroa.6.0.copyload.i = load <2 x float>, ptr %retval.sroa.6.0.m_implicitShapeDimensions.i.sroa_idx.i, align 8
  %vtable.i = load ptr, ptr %this, align 8
  %vfn.i = getelementptr inbounds i8, ptr %vtable.i, i64 96
  %0 = load ptr, ptr %vfn.i, align 8
  %call2.i = tail call noundef float %0(ptr noundef nonnull align 8 dereferenceable(72) %this)
  %vtable4.i = load ptr, ptr %this, align 8
  %vfn5.i = getelementptr inbounds i8, ptr %vtable4.i, i64 96
  %1 = load ptr, ptr %vfn5.i, align 8
  %call6.i = tail call noundef float %1(ptr noundef nonnull align 8 dereferenceable(72) %this)
  %vtable8.i = load ptr, ptr %this, align 8
  %vfn9.i = getelementptr inbounds i8, ptr %vtable8.i, i64 96
  %2 = load ptr, ptr %vfn9.i, align 8
  %call10.i = tail call noundef float %2(ptr noundef nonnull align 8 dereferenceable(72) %this)
  %retval.sroa.0.0.vec.extract.i = extractelement <2 x float> %retval.sroa.0.0.copyload.i, i64 0
  %add.i.i = fadd float %retval.sroa.0.0.vec.extract.i, %call2.i
  %retval.sroa.0.4.vec.extract.i = extractelement <2 x float> %retval.sroa.0.0.copyload.i, i64 1
  %add8.i.i = fadd float %retval.sroa.0.4.vec.extract.i, %call6.i
  %div = fdiv float %mass, 1.200000e+01
  %div2 = fmul float %mass, 2.500000e-01
  %div5 = fmul float %mass, 5.000000e-01
  %m_upAxis = getelementptr inbounds i8, ptr %this, i64 72
  %3 = load i32, ptr %m_upAxis, align 8
  switch i32 %3, label %sw.epilog [
    i32 0, label %sw.epilog.thread
    i32 2, label %sw.epilog.thread31
  ]

sw.epilog.thread:                                 ; preds = %entry
  %mul24 = fmul float %add8.i.i, %add8.i.i
  %mul1426 = fmul float %add.i.i, 4.000000e+00
  %mul1827 = fmul float %add.i.i, %mul1426
  %mul2028 = fmul float %div2, %mul24
  %4 = tail call float @llvm.fmuladd.f32(float %div, float %mul1827, float %mul2028)
  %mul2129 = fmul float %div5, %mul24
  br label %sw.epilog26

sw.epilog.thread31:                               ; preds = %entry
  %retval.sroa.6.8.vec.extract.i = extractelement <2 x float> %retval.sroa.6.0.copyload.i, i64 0
  %add13.i.i = fadd float %retval.sroa.6.8.vec.extract.i, %call10.i
  %mul35 = fmul float %add.i.i, %add.i.i
  %mul1437 = fmul float %add13.i.i, 4.000000e+00
  %mul1838 = fmul float %add13.i.i, %mul1437
  %mul2039 = fmul float %div2, %mul35
  %5 = tail call float @llvm.fmuladd.f32(float %div, float %mul1838, float %mul2039)
  %mul2140 = fmul float %div5, %mul35
  br label %sw.epilog26

sw.epilog:                                        ; preds = %entry
  %mul = fmul float %add.i.i, %add.i.i
  %mul14 = fmul float %add8.i.i, 4.000000e+00
  %mul18 = fmul float %add8.i.i, %mul14
  %mul20 = fmul float %div2, %mul
  %6 = tail call float @llvm.fmuladd.f32(float %div, float %mul18, float %mul20)
  %mul21 = fmul float %div5, %mul
  br label %sw.epilog26

sw.epilog26:                                      ; preds = %sw.epilog, %sw.epilog.thread31, %sw.epilog.thread
  %.sink48 = phi float [ %6, %sw.epilog ], [ %5, %sw.epilog.thread31 ], [ %mul2129, %sw.epilog.thread ]
  %mul21.sink = phi float [ %mul21, %sw.epilog ], [ %5, %sw.epilog.thread31 ], [ %4, %sw.epilog.thread ]
  %.sink = phi float [ %6, %sw.epilog ], [ %mul2140, %sw.epilog.thread31 ], [ %4, %sw.epilog.thread ]
  store float %.sink48, ptr %inertia, align 4
  %arrayidx3.i11 = getelementptr inbounds i8, ptr %inertia, i64 4
  store float %mul21.sink, ptr %arrayidx3.i11, align 4
  %arrayidx5.i12 = getelementptr inbounds i8, ptr %inertia, i64 8
  store float %.sink, ptr %arrayidx5.i12, align 4
  %arrayidx7.i13 = getelementptr inbounds i8, ptr %inertia, i64 12
  store float 0.000000e+00, ptr %arrayidx7.i13, align 4
  ret void
}